target datalayout = "e-m:e-p270:32:32-p271:32:32-p272:64:64-i64:64-i128:128-f80:128-n8:16:32:64-S128"
target triple = "x86_64-pc-linux-gnu"

%"class.llvm::StringRef" = type { ptr, i64 }
%"class.llvm::SmallVectorImpl" = type { %"class.llvm::SmallVectorTemplateBase" }
%"class.llvm::SmallVectorTemplateBase" = type { %"class.llvm::SmallVectorTemplateCommon" }
%"class.llvm::SmallVectorTemplateCommon" = type { %"class.llvm::SmallVectorBase" }
%"class.llvm::SmallVectorBase" = type { ptr, i32, i32 }
%"struct.clang::format::FormatToken" = type <{ %"class.clang::Token", %"class.llvm::StringRef", %"class.std::shared_ptr", %"class.clang::SourceRange", i8, i16, i8, i32, i32, i32, i32, i32, i32, i32, i32, i32, i16, [2 x i8], i32, i32, i32, i32, i32, i32, i32, i32, i32, i32, [4 x i8], %"class.llvm::SmallVector.0", i32, i32, ptr, ptr, ptr, ptr, i8, i8, i8, i8, i8, i8, [2 x i8], %"class.llvm::SmallVector.5", %"class.std::optional", i8, [7 x i8] }>
%"class.clang::Token" = type <{ i32, i32, ptr, i16, i16, [4 x i8] }>
%"class.std::shared_ptr" = type { %"class.std::__shared_ptr" }
%"class.std::__shared_ptr" = type { ptr, %"class.std::__shared_count" }
%"class.std::__shared_count" = type { ptr }
%"class.clang::SourceRange" = type { %"class.clang::SourceLocation", %"class.clang::SourceLocation" }
%"class.clang::SourceLocation" = type { i32 }
%"class.llvm::SmallVector.0" = type { %"class.llvm::SmallVectorImpl.1", %"struct.llvm::SmallVectorStorage.4" }
%"class.llvm::SmallVectorImpl.1" = type { %"class.llvm::SmallVectorTemplateBase.2" }
%"class.llvm::SmallVectorTemplateBase.2" = type { %"class.llvm::SmallVectorTemplateCommon.3" }
%"class.llvm::SmallVectorTemplateCommon.3" = type { %"class.llvm::SmallVectorBase" }
%"struct.llvm::SmallVectorStorage.4" = type { [16 x i8] }
%"class.llvm::SmallVector.5" = type { %"class.llvm::SmallVectorImpl", %"struct.llvm::SmallVectorStorage.6" }
%"struct.llvm::SmallVectorStorage.6" = type { [8 x i8] }
%"class.std::optional" = type { %"struct.std::_Optional_base" }
%"struct.std::_Optional_base" = type { %"struct.std::_Optional_payload" }
%"struct.std::_Optional_payload" = type { %"struct.std::_Optional_payload.base", [7 x i8] }
%"struct.std::_Optional_payload.base" = type { %"struct.std::_Optional_payload_base.base" }
%"struct.std::_Optional_payload_base.base" = type <{ %"union.std::_Optional_payload_base<clang::format::MacroExpansion>::_Storage", i8 }>
%"union.std::_Optional_payload_base<clang::format::MacroExpansion>::_Storage" = type { %"struct.clang::format::MacroExpansion" }
%"struct.clang::format::MacroExpansion" = type { i32, %"class.llvm::SmallVector.8", i32, i32 }
%"class.llvm::SmallVector.8" = type { %"class.llvm::SmallVectorImpl.9", %"struct.llvm::SmallVectorStorage.12" }
%"class.llvm::SmallVectorImpl.9" = type { %"class.llvm::SmallVectorTemplateBase.10" }
%"class.llvm::SmallVectorTemplateBase.10" = type { %"class.llvm::SmallVectorTemplateCommon.11" }
%"class.llvm::SmallVectorTemplateCommon.11" = type { %"class.llvm::SmallVectorBase" }
%"struct.llvm::SmallVectorStorage.12" = type { [8 x i8] }

; Function Attrs: mustprogress nounwind uwtable
define linkonce_odr hidden noundef zeroext i1 @_ZNK5clang5Token2isENS_3tok9TokenKindE(ptr noundef nonnull align 8 dereferenceable(20) %0, i16 noundef zeroext %1) #0 comdat align 2 {
  %3 = alloca ptr, align 8
  %4 = alloca i16, align 2
  store ptr %0, ptr %3, align 8
  store i16 %1, ptr %4, align 2
  %5 = load ptr, ptr %3, align 8
  %6 = getelementptr inbounds nuw %"class.clang::Token", ptr %5, i32 0, i32 3
  %7 = load i16, ptr %6, align 8
  %8 = zext i16 %7 to i32
  %9 = load i16, ptr %4, align 2
  %10 = zext i16 %9 to i32
  %11 = icmp eq i32 %8, %10
  ret i1 %11
}

; Function Attrs: mustprogress nounwind uwtable
define linkonce_odr hidden noundef zeroext i1 @_ZNK5clang6format11FormatToken2isENS_3tok9TokenKindE(ptr noundef nonnull align 8 dereferenceable(305) %0, i16 noundef zeroext %1) #0 comdat align 2 {
  %3 = alloca ptr, align 8
  %4 = alloca i16, align 2
  store ptr %0, ptr %3, align 8
  store i16 %1, ptr %4, align 2
  %5 = load ptr, ptr %3, align 8
  %6 = getelementptr inbounds nuw %"struct.clang::format::FormatToken", ptr %5, i32 0, i32 0
  %7 = load i16, ptr %4, align 2
  %8 = call noundef zeroext i1 @_ZNK5clang5Token2isENS_3tok9TokenKindE(ptr noundef nonnull align 8 dereferenceable(20) %6, i16 noundef zeroext %7)
  ret i1 %8
}

; Function Attrs: mustprogress nounwind uwtable
define linkonce_odr hidden noundef ptr @_ZNK5clang6format11FormatToken21getPreviousNonCommentEv(ptr noundef nonnull align 8 dereferenceable(305) %0) #0 comdat align 2 {
  %2 = alloca ptr, align 8
  %3 = alloca ptr, align 8
  store ptr %0, ptr %2, align 8
  %4 = load ptr, ptr %2, align 8
  %5 = getelementptr inbounds nuw %"struct.clang::format::FormatToken", ptr %4, i32 0, i32 34
  %6 = load ptr, ptr %5, align 8
  store ptr %6, ptr %3, align 8
  br label %7

7:                                                ; preds = %15, %1
  %8 = load ptr, ptr %3, align 8
  %9 = icmp ne ptr %8, null
  br i1 %9, label %10, label %13

10:                                               ; preds = %7
  %11 = load ptr, ptr %3, align 8
  %12 = call noundef zeroext i1 @_ZNK5clang6format11FormatToken2isENS_3tok9TokenKindE(ptr noundef nonnull align 8 dereferenceable(305) %11, i16 noundef zeroext 4)
  br label %13

13:                                               ; preds = %10, %7
  %14 = phi i1 [ false, %7 ], [ %12, %10 ]
  br i1 %14, label %15, label %19

15:                                               ; preds = %13
  %16 = load ptr, ptr %3, align 8
  %17 = getelementptr inbounds nuw %"struct.clang::format::FormatToken", ptr %16, i32 0, i32 34
  %18 = load ptr, ptr %17, align 8
  store ptr %18, ptr %3, align 8
  br label %7, !llvm.loop !29

19:                                               ; preds = %13
  %20 = load ptr, ptr %3, align 8
  ret ptr %20
}

; Function Attrs: mustprogress nounwind uwtable
define internal noundef zeroext i8 @_ZN5clang6format12_GLOBAL__N_116AnnotatingParser28determinePlusMinusCaretUsageERKNS0_11FormatTokenE(ptr noundef nonnull align 8 dereferenceable(1524) %0, ptr noundef nonnull align 8 dereferenceable(305) %1) #0 align 2 {
  %3 = alloca i8, align 1
  %4 = alloca ptr, align 8
  %5 = alloca ptr, align 8
  %6 = alloca ptr, align 8
  store ptr %0, ptr %4, align 8
  store ptr %1, ptr %5, align 8
  %7 = load ptr, ptr %4, align 8
  %8 = load ptr, ptr %5, align 8
  %9 = call noundef zeroext i1 @_ZN5clang6format12_GLOBAL__N_116AnnotatingParser29determineUnaryOperatorByUsageERKNS0_11FormatTokenE(ptr noundef nonnull align 8 dereferenceable(1524) %7, ptr noundef nonnull align 8 dereferenceable(305) %8)
  br i1 %9, label %10, label %11

10:                                               ; preds = %2
  store i8 -111, ptr %3, align 1
  br label %22

11:                                               ; preds = %2
  %12 = load ptr, ptr %5, align 8
  %13 = call noundef ptr @_ZNK5clang6format11FormatToken21getPreviousNonCommentEv(ptr noundef nonnull align 8 dereferenceable(305) %12)
  store ptr %13, ptr %6, align 8
  %14 = load ptr, ptr %6, align 8
  %15 = icmp ne ptr %14, null
  br i1 %15, label %17, label %16

16:                                               ; preds = %11
  store i8 -111, ptr %3, align 1
  br label %22

17:                                               ; preds = %11
  %18 = load ptr, ptr %6, align 8
  %19 = call noundef zeroext i1 @_ZNK5clang6format11FormatToken2isENS_3tok9TokenKindE(ptr noundef nonnull align 8 dereferenceable(305) %18, i16 noundef zeroext 73)
  br i1 %19, label %20, label %21

20:                                               ; preds = %17
  store i8 -111, ptr %3, align 1
  br label %22

21:                                               ; preds = %17
  store i8 7, ptr %3, align 1
  br label %22

22:                                               ; preds = %21, %20, %16, %10
  %23 = load i8, ptr %3, align 1
  ret i8 %23
}