; Function Attrs: mustprogress nofree norecurse nosync nounwind willreturn memory(read, inaccessiblemem: none) uwtable
define internal fastcc noundef zeroext range(i8 -111, 8) i8 @_ZN5clang6format12_GLOBAL__N_116AnnotatingParser28determinePlusMinusCaretUsageERKNS0_11FormatTokenE(ptr noundef nonnull readonly align 8 captures(none) dereferenceable(305) %0) unnamed_addr #3 align 2 {
  %2 = tail call fastcc noundef zeroext i1 @_ZN5clang6format12_GLOBAL__N_116AnnotatingParser29determineUnaryOperatorByUsageERKNS0_11FormatTokenE(ptr noundef nonnull align 8 dereferenceable(305) %0)
  br i1 %2, label %_ZNK5clang6format11FormatToken21getPreviousNonCommentEv.exit.thread, label %.preheader

.preheader:                                       ; preds = %1, %3
  %.pn.i = phi ptr [ %.0.i, %3 ], [ %0, %1 ]
  %.0.in.i = getelementptr inbounds nuw i8, ptr %.pn.i, i64 208
  %.0.i = load ptr, ptr %.0.in.i, align 8
  %.not.i = icmp eq ptr %.0.i, null
  br i1 %.not.i, label %_ZNK5clang6format11FormatToken21getPreviousNonCommentEv.exit.thread, label %3

3:                                                ; preds = %.preheader
  %4 = getelementptr inbounds nuw i8, ptr %.0.i, i64 16
  %5 = load i16, ptr %4, align 8
  %6 = icmp eq i16 %5, 4
  br i1 %6, label %.preheader, label %_ZNK5clang6format11FormatToken21getPreviousNonCommentEv.exit, !llvm.loop !68

_ZNK5clang6format11FormatToken21getPreviousNonCommentEv.exit: ; preds = %3
  %7 = icmp eq i16 %5, 73
  %. = select i1 %7, i8 -111, i8 7
  br label %_ZNK5clang6format11FormatToken21getPreviousNonCommentEv.exit.thread

_ZNK5clang6format11FormatToken21getPreviousNonCommentEv.exit.thread: ; preds = %.preheader, %_ZNK5clang6format11FormatToken21getPreviousNonCommentEv.exit, %1
  %.0 = phi i8 [ -111, %1 ], [ %., %_ZNK5clang6format11FormatToken21getPreviousNonCommentEv.exit ], [ -111, %.preheader ]
  ret i8 %.0
}